; Function Attrs: nounwind uwtable
define hidden void @phpdbg_free_watch_element_tree(ptr noundef %0) local_unnamed_addr #0 {
  %2 = getelementptr inbounds i8, ptr %0, i64 32
  %3 = load ptr, ptr %2, align 8
  %4 = getelementptr inbounds i8, ptr %0, i64 24
  %5 = load ptr, ptr %4, align 8
  %.not14 = icmp eq ptr %3, null
  br i1 %.not14, label %.preheader, label %.lr.ph

.preheader:                                       ; preds = %phpdbg_clean_watch_element.exit, %1
  %.not1316 = icmp eq ptr %5, null
  br i1 %.not1316, label %._crit_edge, label %.lr.ph18

.lr.ph:                                           ; preds = %1, %phpdbg_clean_watch_element.exit
  %.015 = phi ptr [ %7, %phpdbg_clean_watch_element.exit ], [ %3, %1 ]
  %6 = getelementptr inbounds i8, ptr %.015, i64 32
  %7 = load ptr, ptr %6, align 8
  %8 = getelementptr inbounds i8, ptr %.015, i64 8
  %9 = load ptr, ptr %8, align 8
  %10 = getelementptr inbounds i8, ptr %9, i64 32
  tail call void @phpdbg_unwatch_parent_ht(ptr noundef nonnull %.015)
  %11 = getelementptr inbounds i8, ptr %.015, i64 112
  %12 = load ptr, ptr %11, align 8
  %13 = tail call i32 @zend_hash_del(ptr noundef nonnull %10, ptr noundef %12) #17
  %14 = getelementptr inbounds i8, ptr %9, i64 60
  %15 = load i32, ptr %14, align 4
  %16 = icmp eq i32 %15, 0
  br i1 %16, label %17, label %phpdbg_clean_watch_element.exit

17:                                               ; preds = %.lr.ph
  %18 = load ptr, ptr %8, align 8
  tail call void @phpdbg_remove_watchpoint(ptr noundef %18)
  br label %phpdbg_clean_watch_element.exit

phpdbg_clean_watch_element.exit:                  ; preds = %.lr.ph, %17
  tail call void @phpdbg_free_watch_element(ptr noundef nonnull %.015)
  %.not = icmp eq ptr %7, null
  br i1 %.not, label %.preheader, label %.lr.ph

.lr.ph18:                                         ; preds = %.preheader, %.lr.ph18
  %.01217 = phi ptr [ %20, %.lr.ph18 ], [ %5, %.preheader ]
  %19 = getelementptr inbounds i8, ptr %.01217, i64 24
  %20 = load ptr, ptr %19, align 8
  tail call void @phpdbg_free_watch_element(ptr noundef nonnull %.01217)
  %.not13 = icmp eq ptr %20, null
  br i1 %.not13, label %._crit_edge, label %.lr.ph18

._crit_edge:                                      ; preds = %.lr.ph18, %.preheader
  tail call void @phpdbg_free_watch_element(ptr noundef %0)
  ret void
}